c__builtin__
set
p0
((lp1
S'clip_00070'
p2
aS'clip_00072'
p3
aS'clip_00073'
p4
aS'clip_00075'
p5
aS'clip_00076'
p6
aS'clip_00077'
p7
aS'clip_00078'
p8
aS'clip_00079'
p9
aS'clip_00012'
p10
aS'clip_00013'
p11
aS'clip_00010'
p12
aS'clip_00011'
p13
aS'clip_00016'
p14
aS'clip_00017'
p15
aS'clip_00015'
p16
aS'clip_00018'
p17
aS'clip_00019'
p18
aS'clip_00098'
p19
aS'clip_00099'
p20
aS'clip_00093'
p21
aS'clip_00090'
p22
aS'clip_00091'
p23
aS'clip_00096'
p24
aS'clip_00097'
p25
aS'clip_00094'
p26
aS'clip_00095'
p27
aS'clip_00067'
p28
aS'clip_00066'
p29
aS'clip_00065'
p30
aS'clip_00064'
p31
aS'clip_00063'
p32
aS'clip_00062'
p33
aS'clip_00061'
p34
aS'clip_00069'
p35
aS'clip_00068'
p36
aS'clip_00001'
p37
aS'clip_00000'
p38
aS'clip_00003'
p39
aS'clip_00002'
p40
aS'clip_00005'
p41
aS'clip_00004'
p42
aS'clip_00007'
p43
aS'clip_00006'
p44
aS'clip_00009'
p45
aS'clip_00008'
p46
aS'clip_00089'
p47
aS'clip_00088'
p48
aS'clip_00081'
p49
aS'clip_00080'
p50
aS'clip_00083'
p51
aS'clip_00085'
p52
aS'clip_00084'
p53
aS'clip_00087'
p54
aS'clip_00034'
p55
aS'clip_00035'
p56
aS'clip_00036'
p57
aS'clip_00037'
p58
aS'clip_00030'
p59
aS'clip_00031'
p60
aS'clip_00032'
p61
aS'clip_00033'
p62
aS'clip_00038'
p63
aS'clip_00039'
p64
aS'clip_00108'
p65
aS'clip_00109'
p66
aS'clip_00100'
p67
aS'clip_00101'
p68
aS'clip_00103'
p69
aS'clip_00104'
p70
aS'clip_00105'
p71
aS'clip_00107'
p72
aS'clip_00117'
p73
aS'clip_00116'
p74
aS'clip_00115'
p75
aS'clip_00114'
p76
aS'clip_00113'
p77
aS'clip_00112'
p78
aS'clip_00111'
p79
aS'clip_00110'
p80
aS'clip_00029'
p81
aS'clip_00028'
p82
aS'clip_00023'
p83
aS'clip_00022'
p84
aS'clip_00021'
p85
aS'clip_00027'
p86
aS'clip_00026'
p87
aS'clip_00025'
p88
aS'clip_00024'
p89
aS'clip_00058'
p90
aS'clip_00059'
p91
aS'clip_00056'
p92
aS'clip_00057'
p93
aS'clip_00054'
p94
aS'clip_00055'
p95
aS'clip_00052'
p96
aS'clip_00053'
p97
aS'clip_00050'
p98
aS'clip_00049'
p99
aS'clip_00048'
p100
aS'clip_00045'
p101
aS'clip_00044'
p102
aS'clip_00047'
p103
aS'clip_00046'
p104
aS'clip_00041'
p105
aS'clip_00040'
p106
aS'clip_00043'
p107
aS'clip_00042'
p108
atp109
Rp110
.